; Function Attrs: nounwind uwtable
define ptr @l_Lean_JsonRpc_instCoeOutResponseErrorUnitMessage(ptr noundef %0) local_unnamed_addr #0 {
  %.val = load i32, ptr %0, align 4, !tbaa !10
  %2 = icmp eq i32 %.val, 1
  br i1 %2, label %3, label %19

3:                                                ; preds = %1
  %4 = getelementptr inbounds nuw i8, ptr %0, i64 24
  %5 = load ptr, ptr %4, align 8, !tbaa !4
  %6 = ptrtoint ptr %5 to i64
  %7 = and i64 %6, 1
  %.not34 = icmp eq i64 %7, 0
  br i1 %.not34, label %8, label %lean_dec.exit23

8:                                                ; preds = %3
  %9 = load i32, ptr %5, align 4, !tbaa !10
  %10 = icmp sgt i32 %9, 1
  br i1 %10, label %11, label %13, !prof !13

11:                                               ; preds = %8
  %12 = add nsw i32 %9, -1
  store i32 %12, ptr %5, align 4, !tbaa !10
  br label %lean_dec.exit23

13:                                               ; preds = %8
  %.not.i = icmp eq i32 %9, 0
  br i1 %.not.i, label %lean_dec.exit23, label %14

14:                                               ; preds = %13
  tail call void @lean_dec_ref_cold(ptr noundef nonnull %5) #7
  br label %lean_dec.exit23

lean_dec.exit23:                                  ; preds = %14, %13, %11, %3
  %15 = getelementptr inbounds nuw i8, ptr %0, i64 4
  %16 = load i32, ptr %15, align 4
  %17 = and i32 %16, 16777215
  %18 = or disjoint i32 %17, 50331648
  store i32 %18, ptr %15, align 4
  store ptr inttoptr (i64 1 to ptr), ptr %4, align 8, !tbaa !4
  br label %58

19:                                               ; preds = %1
  %20 = getelementptr inbounds nuw i8, ptr %0, i64 8
  %21 = load ptr, ptr %20, align 8, !tbaa !4
  %22 = getelementptr i8, ptr %0, i64 32
  %.val27 = load i8, ptr %22, align 1, !tbaa !19
  %23 = getelementptr inbounds nuw i8, ptr %0, i64 16
  %24 = load ptr, ptr %23, align 8, !tbaa !4
  %25 = ptrtoint ptr %24 to i64
  %26 = and i64 %25, 1
  %.not = icmp eq i64 %26, 0
  br i1 %.not, label %27, label %lean_inc.exit24

27:                                               ; preds = %19
  %.val.i = load i32, ptr %24, align 4, !tbaa !10
  %28 = icmp sgt i32 %.val.i, 0
  br i1 %28, label %29, label %31, !prof !13

29:                                               ; preds = %27
  %30 = add nuw i32 %.val.i, 1
  store i32 %30, ptr %24, align 4, !tbaa !10
  br label %lean_inc.exit24

31:                                               ; preds = %27
  %.not.i28 = icmp eq i32 %.val.i, 0
  br i1 %.not.i28, label %lean_inc.exit24, label %32

32:                                               ; preds = %31
  tail call void @lean_inc_ref_cold(ptr noundef nonnull %24) #7
  br label %lean_inc.exit24

lean_inc.exit24:                                  ; preds = %32, %31, %29, %19
  %33 = ptrtoint ptr %21 to i64
  %34 = and i64 %33, 1
  %.not32 = icmp eq i64 %34, 0
  br i1 %.not32, label %35, label %lean_inc.exit

35:                                               ; preds = %lean_inc.exit24
  %.val.i29 = load i32, ptr %21, align 4, !tbaa !10
  %36 = icmp sgt i32 %.val.i29, 0
  br i1 %36, label %37, label %39, !prof !13

37:                                               ; preds = %35
  %38 = add nuw i32 %.val.i29, 1
  store i32 %38, ptr %21, align 4, !tbaa !10
  br label %lean_inc.exit

39:                                               ; preds = %35
  %.not.i30 = icmp eq i32 %.val.i29, 0
  br i1 %.not.i30, label %lean_inc.exit, label %40

40:                                               ; preds = %39
  tail call void @lean_inc_ref_cold(ptr noundef nonnull %21) #7
  br label %lean_inc.exit

lean_inc.exit:                                    ; preds = %40, %39, %37, %lean_inc.exit24
  %41 = ptrtoint ptr %0 to i64
  %42 = and i64 %41, 1
  %.not33 = icmp eq i64 %42, 0
  br i1 %.not33, label %43, label %lean_dec.exit

43:                                               ; preds = %lean_inc.exit
  %44 = load i32, ptr %0, align 4, !tbaa !10
  %45 = icmp sgt i32 %44, 1
  br i1 %45, label %46, label %48, !prof !13

46:                                               ; preds = %43
  %47 = add nsw i32 %44, -1
  store i32 %47, ptr %0, align 4, !tbaa !10
  br label %lean_dec.exit

48:                                               ; preds = %43
  %.not.i25 = icmp eq i32 %44, 0
  br i1 %.not.i25, label %lean_dec.exit, label %49

49:                                               ; preds = %48
  tail call void @lean_dec_ref_cold(ptr noundef nonnull %0) #7
  br label %lean_dec.exit

lean_dec.exit:                                    ; preds = %49, %48, %46, %lean_inc.exit
  tail call void @lean_inc_heartbeat() #7
  %50 = tail call noalias ptr @mi_malloc_small(i64 noundef 40) #7
  %51 = icmp eq ptr %50, null
  br i1 %51, label %52, label %lean_alloc_ctor.exit

52:                                               ; preds = %lean_dec.exit
  tail call void @lean_internal_panic_out_of_memory() #8
  unreachable

lean_alloc_ctor.exit:                             ; preds = %lean_dec.exit
  %53 = getelementptr inbounds nuw i8, ptr %50, i64 4
  %54 = getelementptr inbounds nuw i8, ptr %50, i64 32
  store i64 0, ptr %54, align 8, !tbaa !8
  store i32 1, ptr %50, align 4, !tbaa !10
  store i32 50528296, ptr %53, align 4
  %55 = getelementptr inbounds nuw i8, ptr %50, i64 8
  store ptr %21, ptr %55, align 8, !tbaa !4
  %56 = getelementptr inbounds nuw i8, ptr %50, i64 16
  store ptr %24, ptr %56, align 8, !tbaa !4
  %57 = getelementptr inbounds nuw i8, ptr %50, i64 24
  store ptr inttoptr (i64 1 to ptr), ptr %57, align 8, !tbaa !4
  store i8 %.val27, ptr %54, align 1, !tbaa !19
  br label %58

58:                                               ; preds = %lean_alloc_ctor.exit, %lean_dec.exit23
  %.0 = phi ptr [ %0, %lean_dec.exit23 ], [ %50, %lean_alloc_ctor.exit ]
  ret ptr %.0
}